target datalayout = "e-m:e-p270:32:32-p271:32:32-p272:64:64-i64:64-i128:128-f80:128-n8:16:32:64-S128"
target triple = "x86_64-pc-linux-gnu"

; Function Attrs: nounwind uwtable
define internal void @pred8x8l_horizontal_filter_add_8_c(ptr noundef %0, ptr noundef %1, i32 noundef %2, i32 noundef %3, i64 noundef %4) #1 {
  %6 = alloca ptr, align 8
  %7 = alloca ptr, align 8
  %8 = alloca i32, align 4
  %9 = alloca i32, align 4
  %10 = alloca i64, align 8
  %11 = alloca i32, align 4
  %12 = alloca ptr, align 8
  %13 = alloca ptr, align 8
  %14 = alloca [8 x i8], align 1
  %15 = alloca i32, align 4
  %16 = alloca i32, align 4
  %17 = alloca i32, align 4
  %18 = alloca i32, align 4
  %19 = alloca i32, align 4
  %20 = alloca i32, align 4
  %21 = alloca i32, align 4
  %22 = alloca i32, align 4
  %23 = alloca i32, align 4
  %24 = alloca i8, align 1
  store ptr %0, ptr %6, align 8, !tbaa !12
  store ptr %1, ptr %7, align 8, !tbaa !16
  store i32 %2, ptr %8, align 4, !tbaa !9
  store i32 %3, ptr %9, align 4, !tbaa !9
  store i64 %4, ptr %10, align 8, !tbaa !14
  call void @llvm.lifetime.start.p0(i64 4, ptr %11) #9
  call void @llvm.lifetime.start.p0(i64 8, ptr %12) #9
  %25 = load ptr, ptr %6, align 8, !tbaa !12
  store ptr %25, ptr %12, align 8, !tbaa !12
  call void @llvm.lifetime.start.p0(i64 8, ptr %13) #9
  %26 = load ptr, ptr %7, align 8, !tbaa !16
  store ptr %26, ptr %13, align 8, !tbaa !16
  call void @llvm.lifetime.start.p0(i64 8, ptr %14) #9
  call void @llvm.lifetime.start.p0(i64 4, ptr %15) #9
  %27 = load i64, ptr %10, align 8, !tbaa !14
  %28 = ashr i64 %27, 0
  %29 = trunc i64 %28 to i32
  store i32 %29, ptr %15, align 4, !tbaa !9
  call void @llvm.lifetime.start.p0(i64 4, ptr %16) #9
  %30 = load i32, ptr %8, align 4, !tbaa !9
  %31 = icmp ne i32 %30, 0
  br i1 %31, label %32, label %41

32:                                               ; preds = %5
  %33 = load ptr, ptr %12, align 8, !tbaa !12
  %34 = load i32, ptr %15, align 4, !tbaa !9
  %35 = mul nsw i32 -1, %34
  %36 = add nsw i32 -1, %35
  %37 = sext i32 %36 to i64
  %38 = getelementptr inbounds i8, ptr %33, i64 %37
  %39 = load i8, ptr %38, align 1, !tbaa !18
  %40 = zext i8 %39 to i32
  br label %50

41:                                               ; preds = %5
  %42 = load ptr, ptr %12, align 8, !tbaa !12
  %43 = load i32, ptr %15, align 4, !tbaa !9
  %44 = mul nsw i32 0, %43
  %45 = add nsw i32 -1, %44
  %46 = sext i32 %45 to i64
  %47 = getelementptr inbounds i8, ptr %42, i64 %46
  %48 = load i8, ptr %47, align 1, !tbaa !18
  %49 = zext i8 %48 to i32
  br label %50

50:                                               ; preds = %41, %32
  %51 = phi i32 [ %40, %32 ], [ %49, %41 ]
  %52 = load ptr, ptr %12, align 8, !tbaa !12
  %53 = load i32, ptr %15, align 4, !tbaa !9
  %54 = mul nsw i32 0, %53
  %55 = add nsw i32 -1, %54
  %56 = sext i32 %55 to i64
  %57 = getelementptr inbounds i8, ptr %52, i64 %56
  %58 = load i8, ptr %57, align 1, !tbaa !18
  %59 = zext i8 %58 to i32
  %60 = mul nsw i32 2, %59
  %61 = add nsw i32 %51, %60
  %62 = load ptr, ptr %12, align 8, !tbaa !12
  %63 = load i32, ptr %15, align 4, !tbaa !9
  %64 = mul nsw i32 1, %63
  %65 = add nsw i32 -1, %64
  %66 = sext i32 %65 to i64
  %67 = getelementptr inbounds i8, ptr %62, i64 %66
  %68 = load i8, ptr %67, align 1, !tbaa !18
  %69 = zext i8 %68 to i32
  %70 = add nsw i32 %61, %69
  %71 = add nsw i32 %70, 2
  %72 = ashr i32 %71, 2
  store i32 %72, ptr %16, align 4, !tbaa !9
  call void @llvm.lifetime.start.p0(i64 4, ptr %17) #9
  %73 = load ptr, ptr %12, align 8, !tbaa !12
  %74 = load i32, ptr %15, align 4, !tbaa !9
  %75 = mul nsw i32 0, %74
  %76 = add nsw i32 -1, %75
  %77 = sext i32 %76 to i64
  %78 = getelementptr inbounds i8, ptr %73, i64 %77
  %79 = load i8, ptr %78, align 1, !tbaa !18
  %80 = zext i8 %79 to i32
  %81 = load ptr, ptr %12, align 8, !tbaa !12
  %82 = load i32, ptr %15, align 4, !tbaa !9
  %83 = mul nsw i32 1, %82
  %84 = add nsw i32 -1, %83
  %85 = sext i32 %84 to i64
  %86 = getelementptr inbounds i8, ptr %81, i64 %85
  %87 = load i8, ptr %86, align 1, !tbaa !18
  %88 = zext i8 %87 to i32
  %89 = mul nsw i32 2, %88
  %90 = add nsw i32 %80, %89
  %91 = load ptr, ptr %12, align 8, !tbaa !12
  %92 = load i32, ptr %15, align 4, !tbaa !9
  %93 = mul nsw i32 2, %92
  %94 = add nsw i32 -1, %93
  %95 = sext i32 %94 to i64
  %96 = getelementptr inbounds i8, ptr %91, i64 %95
  %97 = load i8, ptr %96, align 1, !tbaa !18
  %98 = zext i8 %97 to i32
  %99 = add nsw i32 %90, %98
  %100 = add nsw i32 %99, 2
  %101 = ashr i32 %100, 2
  store i32 %101, ptr %17, align 4, !tbaa !9
  call void @llvm.lifetime.start.p0(i64 4, ptr %18) #9
  %102 = load ptr, ptr %12, align 8, !tbaa !12
  %103 = load i32, ptr %15, align 4, !tbaa !9
  %104 = mul nsw i32 1, %103
  %105 = add nsw i32 -1, %104
  %106 = sext i32 %105 to i64
  %107 = getelementptr inbounds i8, ptr %102, i64 %106
  %108 = load i8, ptr %107, align 1, !tbaa !18
  %109 = zext i8 %108 to i32
  %110 = load ptr, ptr %12, align 8, !tbaa !12
  %111 = load i32, ptr %15, align 4, !tbaa !9
  %112 = mul nsw i32 2, %111
  %113 = add nsw i32 -1, %112
  %114 = sext i32 %113 to i64
  %115 = getelementptr inbounds i8, ptr %110, i64 %114
  %116 = load i8, ptr %115, align 1, !tbaa !18
  %117 = zext i8 %116 to i32
  %118 = mul nsw i32 2, %117
  %119 = add nsw i32 %109, %118
  %120 = load ptr, ptr %12, align 8, !tbaa !12
  %121 = load i32, ptr %15, align 4, !tbaa !9
  %122 = mul nsw i32 3, %121
  %123 = add nsw i32 -1, %122
  %124 = sext i32 %123 to i64
  %125 = getelementptr inbounds i8, ptr %120, i64 %124
  %126 = load i8, ptr %125, align 1, !tbaa !18
  %127 = zext i8 %126 to i32
  %128 = add nsw i32 %119, %127
  %129 = add nsw i32 %128, 2
  %130 = ashr i32 %129, 2
  store i32 %130, ptr %18, align 4, !tbaa !9
  call void @llvm.lifetime.start.p0(i64 4, ptr %19) #9
  %131 = load ptr, ptr %12, align 8, !tbaa !12
  %132 = load i32, ptr %15, align 4, !tbaa !9
  %133 = mul nsw i32 2, %132
  %134 = add nsw i32 -1, %133
  %135 = sext i32 %134 to i64
  %136 = getelementptr inbounds i8, ptr %131, i64 %135
  %137 = load i8, ptr %136, align 1, !tbaa !18
  %138 = zext i8 %137 to i32
  %139 = load ptr, ptr %12, align 8, !tbaa !12
  %140 = load i32, ptr %15, align 4, !tbaa !9
  %141 = mul nsw i32 3, %140
  %142 = add nsw i32 -1, %141
  %143 = sext i32 %142 to i64
  %144 = getelementptr inbounds i8, ptr %139, i64 %143
  %145 = load i8, ptr %144, align 1, !tbaa !18
  %146 = zext i8 %145 to i32
  %147 = mul nsw i32 2, %146
  %148 = add nsw i32 %138, %147
  %149 = load ptr, ptr %12, align 8, !tbaa !12
  %150 = load i32, ptr %15, align 4, !tbaa !9
  %151 = mul nsw i32 4, %150
  %152 = add nsw i32 -1, %151
  %153 = sext i32 %152 to i64
  %154 = getelementptr inbounds i8, ptr %149, i64 %153
  %155 = load i8, ptr %154, align 1, !tbaa !18
  %156 = zext i8 %155 to i32
  %157 = add nsw i32 %148, %156
  %158 = add nsw i32 %157, 2
  %159 = ashr i32 %158, 2
  store i32 %159, ptr %19, align 4, !tbaa !9
  call void @llvm.lifetime.start.p0(i64 4, ptr %20) #9
  %160 = load ptr, ptr %12, align 8, !tbaa !12
  %161 = load i32, ptr %15, align 4, !tbaa !9
  %162 = mul nsw i32 3, %161
  %163 = add nsw i32 -1, %162
  %164 = sext i32 %163 to i64
  %165 = getelementptr inbounds i8, ptr %160, i64 %164
  %166 = load i8, ptr %165, align 1, !tbaa !18
  %167 = zext i8 %166 to i32
  %168 = load ptr, ptr %12, align 8, !tbaa !12
  %169 = load i32, ptr %15, align 4, !tbaa !9
  %170 = mul nsw i32 4, %169
  %171 = add nsw i32 -1, %170
  %172 = sext i32 %171 to i64
  %173 = getelementptr inbounds i8, ptr %168, i64 %172
  %174 = load i8, ptr %173, align 1, !tbaa !18
  %175 = zext i8 %174 to i32
  %176 = mul nsw i32 2, %175
  %177 = add nsw i32 %167, %176
  %178 = load ptr, ptr %12, align 8, !tbaa !12
  %179 = load i32, ptr %15, align 4, !tbaa !9
  %180 = mul nsw i32 5, %179
  %181 = add nsw i32 -1, %180
  %182 = sext i32 %181 to i64
  %183 = getelementptr inbounds i8, ptr %178, i64 %182
  %184 = load i8, ptr %183, align 1, !tbaa !18
  %185 = zext i8 %184 to i32
  %186 = add nsw i32 %177, %185
  %187 = add nsw i32 %186, 2
  %188 = ashr i32 %187, 2
  store i32 %188, ptr %20, align 4, !tbaa !9
  call void @llvm.lifetime.start.p0(i64 4, ptr %21) #9
  %189 = load ptr, ptr %12, align 8, !tbaa !12
  %190 = load i32, ptr %15, align 4, !tbaa !9
  %191 = mul nsw i32 4, %190
  %192 = add nsw i32 -1, %191
  %193 = sext i32 %192 to i64
  %194 = getelementptr inbounds i8, ptr %189, i64 %193
  %195 = load i8, ptr %194, align 1, !tbaa !18
  %196 = zext i8 %195 to i32
  %197 = load ptr, ptr %12, align 8, !tbaa !12
  %198 = load i32, ptr %15, align 4, !tbaa !9
  %199 = mul nsw i32 5, %198
  %200 = add nsw i32 -1, %199
  %201 = sext i32 %200 to i64
  %202 = getelementptr inbounds i8, ptr %197, i64 %201
  %203 = load i8, ptr %202, align 1, !tbaa !18
  %204 = zext i8 %203 to i32
  %205 = mul nsw i32 2, %204
  %206 = add nsw i32 %196, %205
  %207 = load ptr, ptr %12, align 8, !tbaa !12
  %208 = load i32, ptr %15, align 4, !tbaa !9
  %209 = mul nsw i32 6, %208
  %210 = add nsw i32 -1, %209
  %211 = sext i32 %210 to i64
  %212 = getelementptr inbounds i8, ptr %207, i64 %211
  %213 = load i8, ptr %212, align 1, !tbaa !18
  %214 = zext i8 %213 to i32
  %215 = add nsw i32 %206, %214
  %216 = add nsw i32 %215, 2
  %217 = ashr i32 %216, 2
  store i32 %217, ptr %21, align 4, !tbaa !9
  call void @llvm.lifetime.start.p0(i64 4, ptr %22) #9
  %218 = load ptr, ptr %12, align 8, !tbaa !12
  %219 = load i32, ptr %15, align 4, !tbaa !9
  %220 = mul nsw i32 5, %219
  %221 = add nsw i32 -1, %220
  %222 = sext i32 %221 to i64
  %223 = getelementptr inbounds i8, ptr %218, i64 %222
  %224 = load i8, ptr %223, align 1, !tbaa !18
  %225 = zext i8 %224 to i32
  %226 = load ptr, ptr %12, align 8, !tbaa !12
  %227 = load i32, ptr %15, align 4, !tbaa !9
  %228 = mul nsw i32 6, %227
  %229 = add nsw i32 -1, %228
  %230 = sext i32 %229 to i64
  %231 = getelementptr inbounds i8, ptr %226, i64 %230
  %232 = load i8, ptr %231, align 1, !tbaa !18
  %233 = zext i8 %232 to i32
  %234 = mul nsw i32 2, %233
  %235 = add nsw i32 %225, %234
  %236 = load ptr, ptr %12, align 8, !tbaa !12
  %237 = load i32, ptr %15, align 4, !tbaa !9
  %238 = mul nsw i32 7, %237
  %239 = add nsw i32 -1, %238
  %240 = sext i32 %239 to i64
  %241 = getelementptr inbounds i8, ptr %236, i64 %240
  %242 = load i8, ptr %241, align 1, !tbaa !18
  %243 = zext i8 %242 to i32
  %244 = add nsw i32 %235, %243
  %245 = add nsw i32 %244, 2
  %246 = ashr i32 %245, 2
  store i32 %246, ptr %22, align 4, !tbaa !9
  call void @llvm.lifetime.start.p0(i64 4, ptr %23) #9
  %247 = load ptr, ptr %12, align 8, !tbaa !12
  %248 = load i32, ptr %15, align 4, !tbaa !9
  %249 = mul nsw i32 6, %248
  %250 = add nsw i32 -1, %249
  %251 = sext i32 %250 to i64
  %252 = getelementptr inbounds i8, ptr %247, i64 %251
  %253 = load i8, ptr %252, align 1, !tbaa !18
  %254 = zext i8 %253 to i32
  %255 = load ptr, ptr %12, align 8, !tbaa !12
  %256 = load i32, ptr %15, align 4, !tbaa !9
  %257 = mul nsw i32 7, %256
  %258 = add nsw i32 -1, %257
  %259 = sext i32 %258 to i64
  %260 = getelementptr inbounds i8, ptr %255, i64 %259
  %261 = load i8, ptr %260, align 1, !tbaa !18
  %262 = zext i8 %261 to i32
  %263 = mul nsw i32 3, %262
  %264 = add nsw i32 %254, %263
  %265 = add nsw i32 %264, 2
  %266 = ashr i32 %265, 2
  store i32 %266, ptr %23, align 4, !tbaa !9
  %267 = load i32, ptr %16, align 4, !tbaa !9
  %268 = trunc i32 %267 to i8
  %269 = getelementptr inbounds [8 x i8], ptr %14, i64 0, i64 0
  store i8 %268, ptr %269, align 1, !tbaa !18
  %270 = load i32, ptr %17, align 4, !tbaa !9
  %271 = trunc i32 %270 to i8
  %272 = getelementptr inbounds [8 x i8], ptr %14, i64 0, i64 1
  store i8 %271, ptr %272, align 1, !tbaa !18
  %273 = load i32, ptr %18, align 4, !tbaa !9
  %274 = trunc i32 %273 to i8
  %275 = getelementptr inbounds [8 x i8], ptr %14, i64 0, i64 2
  store i8 %274, ptr %275, align 1, !tbaa !18
  %276 = load i32, ptr %19, align 4, !tbaa !9
  %277 = trunc i32 %276 to i8
  %278 = getelementptr inbounds [8 x i8], ptr %14, i64 0, i64 3
  store i8 %277, ptr %278, align 1, !tbaa !18
  %279 = load i32, ptr %20, align 4, !tbaa !9
  %280 = trunc i32 %279 to i8
  %281 = getelementptr inbounds [8 x i8], ptr %14, i64 0, i64 4
  store i8 %280, ptr %281, align 1, !tbaa !18
  %282 = load i32, ptr %21, align 4, !tbaa !9
  %283 = trunc i32 %282 to i8
  %284 = getelementptr inbounds [8 x i8], ptr %14, i64 0, i64 5
  store i8 %283, ptr %284, align 1, !tbaa !18
  %285 = load i32, ptr %22, align 4, !tbaa !9
  %286 = trunc i32 %285 to i8
  %287 = getelementptr inbounds [8 x i8], ptr %14, i64 0, i64 6
  store i8 %286, ptr %287, align 1, !tbaa !18
  %288 = load i32, ptr %23, align 4, !tbaa !9
  %289 = trunc i32 %288 to i8
  %290 = getelementptr inbounds [8 x i8], ptr %14, i64 0, i64 7
  store i8 %289, ptr %290, align 1, !tbaa !18
  store i32 0, ptr %11, align 4, !tbaa !9
  br label %291

291:                                              ; preds = %385, %50
  %292 = load i32, ptr %11, align 4, !tbaa !9
  %293 = icmp slt i32 %292, 8
  br i1 %293, label %294, label %388

294:                                              ; preds = %291
  call void @llvm.lifetime.start.p0(i64 1, ptr %24) #9
  %295 = load i32, ptr %11, align 4, !tbaa !9
  %296 = sext i32 %295 to i64
  %297 = getelementptr inbounds [8 x i8], ptr %14, i64 0, i64 %296
  %298 = load i8, ptr %297, align 1, !tbaa !18
  store i8 %298, ptr %24, align 1, !tbaa !18
  %299 = load ptr, ptr %13, align 8, !tbaa !16
  %300 = getelementptr inbounds i16, ptr %299, i64 0
  %301 = load i16, ptr %300, align 2, !tbaa !19
  %302 = sext i16 %301 to i32
  %303 = load i8, ptr %24, align 1, !tbaa !18
  %304 = zext i8 %303 to i32
  %305 = add nsw i32 %304, %302
  %306 = trunc i32 %305 to i8
  store i8 %306, ptr %24, align 1, !tbaa !18
  %307 = load ptr, ptr %12, align 8, !tbaa !12
  %308 = getelementptr inbounds i8, ptr %307, i64 0
  store i8 %306, ptr %308, align 1, !tbaa !18
  %309 = load ptr, ptr %13, align 8, !tbaa !16
  %310 = getelementptr inbounds i16, ptr %309, i64 1
  %311 = load i16, ptr %310, align 2, !tbaa !19
  %312 = sext i16 %311 to i32
  %313 = load i8, ptr %24, align 1, !tbaa !18
  %314 = zext i8 %313 to i32
  %315 = add nsw i32 %314, %312
  %316 = trunc i32 %315 to i8
  store i8 %316, ptr %24, align 1, !tbaa !18
  %317 = load ptr, ptr %12, align 8, !tbaa !12
  %318 = getelementptr inbounds i8, ptr %317, i64 1
  store i8 %316, ptr %318, align 1, !tbaa !18
  %319 = load ptr, ptr %13, align 8, !tbaa !16
  %320 = getelementptr inbounds i16, ptr %319, i64 2
  %321 = load i16, ptr %320, align 2, !tbaa !19
  %322 = sext i16 %321 to i32
  %323 = load i8, ptr %24, align 1, !tbaa !18
  %324 = zext i8 %323 to i32
  %325 = add nsw i32 %324, %322
  %326 = trunc i32 %325 to i8
  store i8 %326, ptr %24, align 1, !tbaa !18
  %327 = load ptr, ptr %12, align 8, !tbaa !12
  %328 = getelementptr inbounds i8, ptr %327, i64 2
  store i8 %326, ptr %328, align 1, !tbaa !18
  %329 = load ptr, ptr %13, align 8, !tbaa !16
  %330 = getelementptr inbounds i16, ptr %329, i64 3
  %331 = load i16, ptr %330, align 2, !tbaa !19
  %332 = sext i16 %331 to i32
  %333 = load i8, ptr %24, align 1, !tbaa !18
  %334 = zext i8 %333 to i32
  %335 = add nsw i32 %334, %332
  %336 = trunc i32 %335 to i8
  store i8 %336, ptr %24, align 1, !tbaa !18
  %337 = load ptr, ptr %12, align 8, !tbaa !12
  %338 = getelementptr inbounds i8, ptr %337, i64 3
  store i8 %336, ptr %338, align 1, !tbaa !18
  %339 = load ptr, ptr %13, align 8, !tbaa !16
  %340 = getelementptr inbounds i16, ptr %339, i64 4
  %341 = load i16, ptr %340, align 2, !tbaa !19
  %342 = sext i16 %341 to i32
  %343 = load i8, ptr %24, align 1, !tbaa !18
  %344 = zext i8 %343 to i32
  %345 = add nsw i32 %344, %342
  %346 = trunc i32 %345 to i8
  store i8 %346, ptr %24, align 1, !tbaa !18
  %347 = load ptr, ptr %12, align 8, !tbaa !12
  %348 = getelementptr inbounds i8, ptr %347, i64 4
  store i8 %346, ptr %348, align 1, !tbaa !18
  %349 = load ptr, ptr %13, align 8, !tbaa !16
  %350 = getelementptr inbounds i16, ptr %349, i64 5
  %351 = load i16, ptr %350, align 2, !tbaa !19
  %352 = sext i16 %351 to i32
  %353 = load i8, ptr %24, align 1, !tbaa !18
  %354 = zext i8 %353 to i32
  %355 = add nsw i32 %354, %352
  %356 = trunc i32 %355 to i8
  store i8 %356, ptr %24, align 1, !tbaa !18
  %357 = load ptr, ptr %12, align 8, !tbaa !12
  %358 = getelementptr inbounds i8, ptr %357, i64 5
  store i8 %356, ptr %358, align 1, !tbaa !18
  %359 = load ptr, ptr %13, align 8, !tbaa !16
  %360 = getelementptr inbounds i16, ptr %359, i64 6
  %361 = load i16, ptr %360, align 2, !tbaa !19
  %362 = sext i16 %361 to i32
  %363 = load i8, ptr %24, align 1, !tbaa !18
  %364 = zext i8 %363 to i32
  %365 = add nsw i32 %364, %362
  %366 = trunc i32 %365 to i8
  store i8 %366, ptr %24, align 1, !tbaa !18
  %367 = load ptr, ptr %12, align 8, !tbaa !12
  %368 = getelementptr inbounds i8, ptr %367, i64 6
  store i8 %366, ptr %368, align 1, !tbaa !18
  %369 = load i8, ptr %24, align 1, !tbaa !18
  %370 = zext i8 %369 to i32
  %371 = load ptr, ptr %13, align 8, !tbaa !16
  %372 = getelementptr inbounds i16, ptr %371, i64 7
  %373 = load i16, ptr %372, align 2, !tbaa !19
  %374 = sext i16 %373 to i32
  %375 = add nsw i32 %370, %374
  %376 = trunc i32 %375 to i8
  %377 = load ptr, ptr %12, align 8, !tbaa !12
  %378 = getelementptr inbounds i8, ptr %377, i64 7
  store i8 %376, ptr %378, align 1, !tbaa !18
  %379 = load i32, ptr %15, align 4, !tbaa !9
  %380 = load ptr, ptr %12, align 8, !tbaa !12
  %381 = sext i32 %379 to i64
  %382 = getelementptr inbounds i8, ptr %380, i64 %381
  store ptr %382, ptr %12, align 8, !tbaa !12
  %383 = load ptr, ptr %13, align 8, !tbaa !16
  %384 = getelementptr inbounds i16, ptr %383, i64 8
  store ptr %384, ptr %13, align 8, !tbaa !16
  call void @llvm.lifetime.end.p0(i64 1, ptr %24) #9
  br label %385

385:                                              ; preds = %294
  %386 = load i32, ptr %11, align 4, !tbaa !9
  %387 = add nsw i32 %386, 1
  store i32 %387, ptr %11, align 4, !tbaa !9
  br label %291, !llvm.loop !297

388:                                              ; preds = %291
  %389 = load ptr, ptr %7, align 8, !tbaa !16
  call void @llvm.memset.p0.i64(ptr align 2 %389, i8 0, i64 128, i1 false)
  call void @llvm.lifetime.end.p0(i64 4, ptr %23) #9
  call void @llvm.lifetime.end.p0(i64 4, ptr %22) #9
  call void @llvm.lifetime.end.p0(i64 4, ptr %21) #9
  call void @llvm.lifetime.end.p0(i64 4, ptr %20) #9
  call void @llvm.lifetime.end.p0(i64 4, ptr %19) #9
  call void @llvm.lifetime.end.p0(i64 4, ptr %18) #9
  call void @llvm.lifetime.end.p0(i64 4, ptr %17) #9
  call void @llvm.lifetime.end.p0(i64 4, ptr %16) #9
  call void @llvm.lifetime.end.p0(i64 4, ptr %15) #9
  call void @llvm.lifetime.end.p0(i64 8, ptr %14) #9
  call void @llvm.lifetime.end.p0(i64 8, ptr %13) #9
  call void @llvm.lifetime.end.p0(i64 8, ptr %12) #9
  call void @llvm.lifetime.end.p0(i64 4, ptr %11) #9
  ret void
}