; Function Attrs: nofree norecurse nosync nounwind memory(argmem: readwrite) uwtable
define internal void @pred8x8l_horizontal_filter_add_8_c(ptr noundef captures(none) %0, ptr noundef captures(none) %1, i32 noundef %2, i32 %3, i64 noundef %4) #3 {
  %6 = alloca [8 x i8], align 1
  call void @llvm.lifetime.start.p0(i64 8, ptr nonnull %6) #11
  %7 = trunc i64 %4 to i32
  %.not = icmp eq i32 %2, 0
  %8 = xor i64 %4, -1
  %sext = shl i64 %8, 32
  %9 = ashr exact i64 %sext, 32
  %10 = getelementptr inbounds i8, ptr %0, i64 %9
  %11 = getelementptr inbounds i8, ptr %0, i64 -1
  %.in.in = select i1 %.not, ptr %11, ptr %10
  %.in = load i8, ptr %.in.in, align 1, !tbaa !8
  %12 = zext i8 %.in to i32
  %13 = load i8, ptr %11, align 1, !tbaa !8
  %14 = zext i8 %13 to i32
  %15 = shl nuw nsw i32 %14, 1
  %16 = shl i64 %4, 32
  %sext92 = add i64 %16, -4294967296
  %17 = ashr exact i64 %sext92, 32
  %18 = getelementptr inbounds i8, ptr %0, i64 %17
  %19 = load i8, ptr %18, align 1, !tbaa !8
  %20 = zext i8 %19 to i32
  %21 = add nuw nsw i32 %20, 2
  %22 = add nuw nsw i32 %21, %12
  %23 = add nuw nsw i32 %22, %15
  %24 = lshr i32 %23, 2
  %25 = shl nuw nsw i32 %20, 1
  %26 = shl nsw i32 %7, 1
  %27 = sext i32 %26 to i64
  %28 = getelementptr i8, ptr %0, i64 %27
  %29 = getelementptr i8, ptr %28, i64 -1
  %30 = load i8, ptr %29, align 1, !tbaa !8
  %31 = zext i8 %30 to i32
  %32 = add nuw nsw i32 %31, 2
  %33 = add nuw nsw i32 %32, %14
  %34 = add nuw nsw i32 %33, %25
  %35 = lshr i32 %34, 2
  %36 = shl nuw nsw i32 %31, 1
  %37 = mul i64 %4, 12884901888
  %sext93 = add i64 %37, -4294967296
  %38 = ashr exact i64 %sext93, 32
  %39 = getelementptr inbounds i8, ptr %0, i64 %38
  %40 = load i8, ptr %39, align 1, !tbaa !8
  %41 = zext i8 %40 to i32
  %42 = add nuw nsw i32 %21, %36
  %43 = add nuw nsw i32 %42, %41
  %44 = lshr i32 %43, 2
  %45 = shl nuw nsw i32 %41, 1
  %46 = shl nsw i32 %7, 2
  %47 = sext i32 %46 to i64
  %48 = getelementptr i8, ptr %0, i64 %47
  %49 = getelementptr i8, ptr %48, i64 -1
  %50 = load i8, ptr %49, align 1, !tbaa !8
  %51 = zext i8 %50 to i32
  %52 = add nuw nsw i32 %32, %45
  %53 = add nuw nsw i32 %52, %51
  %54 = lshr i32 %53, 2
  %55 = shl nuw nsw i32 %51, 1
  %56 = mul i64 %4, 21474836480
  %sext94 = add i64 %56, -4294967296
  %57 = ashr exact i64 %sext94, 32
  %58 = getelementptr inbounds i8, ptr %0, i64 %57
  %59 = load i8, ptr %58, align 1, !tbaa !8
  %60 = zext i8 %59 to i32
  %61 = add nuw nsw i32 %41, 2
  %62 = add nuw nsw i32 %61, %55
  %63 = add nuw nsw i32 %62, %60
  %64 = lshr i32 %63, 2
  %65 = shl nuw nsw i32 %60, 1
  %66 = mul i64 %4, 25769803776
  %sext95 = add i64 %66, -4294967296
  %67 = ashr exact i64 %sext95, 32
  %68 = getelementptr inbounds i8, ptr %0, i64 %67
  %69 = load i8, ptr %68, align 1, !tbaa !8
  %70 = zext i8 %69 to i32
  %71 = add nuw nsw i32 %51, 2
  %72 = add nuw nsw i32 %71, %65
  %73 = add nuw nsw i32 %72, %70
  %74 = lshr i32 %73, 2
  %75 = shl nuw nsw i32 %70, 1
  %76 = mul i64 %4, 30064771072
  %sext96 = add i64 %76, -4294967296
  %77 = ashr exact i64 %sext96, 32
  %78 = getelementptr inbounds i8, ptr %0, i64 %77
  %79 = load i8, ptr %78, align 1, !tbaa !8
  %80 = zext i8 %79 to i32
  %81 = add nuw nsw i32 %60, 2
  %82 = add nuw nsw i32 %81, %75
  %83 = add nuw nsw i32 %82, %80
  %84 = lshr i32 %83, 2
  %85 = mul nuw nsw i32 %80, 3
  %86 = add nuw nsw i32 %70, 2
  %87 = add nuw nsw i32 %86, %85
  %88 = lshr i32 %87, 2
  %89 = trunc nuw i32 %24 to i8
  store i8 %89, ptr %6, align 1, !tbaa !8
  %90 = trunc nuw i32 %35 to i8
  %91 = getelementptr inbounds nuw i8, ptr %6, i64 1
  store i8 %90, ptr %91, align 1, !tbaa !8
  %92 = trunc nuw i32 %44 to i8
  %93 = getelementptr inbounds nuw i8, ptr %6, i64 2
  store i8 %92, ptr %93, align 1, !tbaa !8
  %94 = trunc nuw i32 %54 to i8
  %95 = getelementptr inbounds nuw i8, ptr %6, i64 3
  store i8 %94, ptr %95, align 1, !tbaa !8
  %96 = trunc nuw i32 %64 to i8
  %97 = getelementptr inbounds nuw i8, ptr %6, i64 4
  store i8 %96, ptr %97, align 1, !tbaa !8
  %98 = trunc nuw i32 %74 to i8
  %99 = getelementptr inbounds nuw i8, ptr %6, i64 5
  store i8 %98, ptr %99, align 1, !tbaa !8
  %100 = trunc nuw i32 %84 to i8
  %101 = getelementptr inbounds nuw i8, ptr %6, i64 6
  store i8 %100, ptr %101, align 1, !tbaa !8
  %102 = trunc nuw i32 %88 to i8
  %103 = getelementptr inbounds nuw i8, ptr %6, i64 7
  store i8 %102, ptr %103, align 1, !tbaa !8
  %104 = ashr exact i64 %16, 32
  br label %105

105:                                              ; preds = %5, %105
  %indvars.iv = phi i64 [ 0, %5 ], [ %indvars.iv.next, %105 ]
  %.09099 = phi ptr [ %0, %5 ], [ %146, %105 ]
  %.09198 = phi ptr [ %1, %5 ], [ %147, %105 ]
  %106 = getelementptr inbounds nuw [8 x i8], ptr %6, i64 0, i64 %indvars.iv
  %107 = load i8, ptr %106, align 1, !tbaa !8
  %108 = load i16, ptr %.09198, align 2, !tbaa !9
  %109 = trunc i16 %108 to i8
  %110 = add i8 %107, %109
  store i8 %110, ptr %.09099, align 1, !tbaa !8
  %111 = getelementptr inbounds nuw i8, ptr %.09198, i64 2
  %112 = load i16, ptr %111, align 2, !tbaa !9
  %113 = trunc i16 %112 to i8
  %114 = add i8 %110, %113
  %115 = getelementptr inbounds nuw i8, ptr %.09099, i64 1
  store i8 %114, ptr %115, align 1, !tbaa !8
  %116 = getelementptr inbounds nuw i8, ptr %.09198, i64 4
  %117 = load i16, ptr %116, align 2, !tbaa !9
  %118 = trunc i16 %117 to i8
  %119 = add i8 %114, %118
  %120 = getelementptr inbounds nuw i8, ptr %.09099, i64 2
  store i8 %119, ptr %120, align 1, !tbaa !8
  %121 = getelementptr inbounds nuw i8, ptr %.09198, i64 6
  %122 = load i16, ptr %121, align 2, !tbaa !9
  %123 = trunc i16 %122 to i8
  %124 = add i8 %119, %123
  %125 = getelementptr inbounds nuw i8, ptr %.09099, i64 3
  store i8 %124, ptr %125, align 1, !tbaa !8
  %126 = getelementptr inbounds nuw i8, ptr %.09198, i64 8
  %127 = load i16, ptr %126, align 2, !tbaa !9
  %128 = trunc i16 %127 to i8
  %129 = add i8 %124, %128
  %130 = getelementptr inbounds nuw i8, ptr %.09099, i64 4
  store i8 %129, ptr %130, align 1, !tbaa !8
  %131 = getelementptr inbounds nuw i8, ptr %.09198, i64 10
  %132 = load i16, ptr %131, align 2, !tbaa !9
  %133 = trunc i16 %132 to i8
  %134 = add i8 %129, %133
  %135 = getelementptr inbounds nuw i8, ptr %.09099, i64 5
  store i8 %134, ptr %135, align 1, !tbaa !8
  %136 = getelementptr inbounds nuw i8, ptr %.09198, i64 12
  %137 = load i16, ptr %136, align 2, !tbaa !9
  %138 = trunc i16 %137 to i8
  %139 = add i8 %134, %138
  %140 = getelementptr inbounds nuw i8, ptr %.09099, i64 6
  store i8 %139, ptr %140, align 1, !tbaa !8
  %141 = getelementptr inbounds nuw i8, ptr %.09198, i64 14
  %142 = load i16, ptr %141, align 2, !tbaa !9
  %143 = trunc i16 %142 to i8
  %144 = add i8 %139, %143
  %145 = getelementptr inbounds nuw i8, ptr %.09099, i64 7
  store i8 %144, ptr %145, align 1, !tbaa !8
  %146 = getelementptr inbounds i8, ptr %.09099, i64 %104
  %147 = getelementptr inbounds nuw i8, ptr %.09198, i64 16
  %indvars.iv.next = add nuw nsw i64 %indvars.iv, 1
  %exitcond.not = icmp eq i64 %indvars.iv.next, 8
  br i1 %exitcond.not, label %148, label %105, !llvm.loop !299

148:                                              ; preds = %105
  tail call void @llvm.memset.p0.i64(ptr noundef nonnull align 2 dereferenceable(128) %1, i8 0, i64 128, i1 false)
  call void @llvm.lifetime.end.p0(i64 8, ptr nonnull %6) #11
  ret void
}